; Function Attrs: nounwind uwtable
define dso_local noundef zeroext i1 @XLogCheckBufferNeedsBackup(i32 noundef %0) local_unnamed_addr #0 {
  %2 = alloca i64, align 8
  %3 = alloca i8, align 1
  call void @llvm.lifetime.start.p0(i64 8, ptr nonnull %2) #10
  call void @llvm.lifetime.start.p0(i64 1, ptr nonnull %3) #10
  call void @GetFullPageWriteInfo(ptr noundef nonnull %2, ptr noundef nonnull %3) #10
  %4 = icmp slt i32 %0, 0
  br i1 %4, label %5, label %11

5:                                                ; preds = %1
  %6 = load ptr, ptr @LocalBufferBlockPointers, align 8
  %7 = xor i32 %0, -1
  %8 = zext nneg i32 %7 to i64
  %9 = getelementptr inbounds nuw ptr, ptr %6, i64 %8
  %10 = load ptr, ptr %9, align 8
  br label %BufferGetPage.exit

11:                                               ; preds = %1
  %12 = load ptr, ptr @BufferBlocks, align 8
  %13 = add nsw i32 %0, -1
  %14 = sext i32 %13 to i64
  %15 = shl nsw i64 %14, 13
  %16 = getelementptr inbounds nuw i8, ptr %12, i64 %15
  br label %BufferGetPage.exit

BufferGetPage.exit:                               ; preds = %5, %11
  %.0.i.i = phi ptr [ %10, %5 ], [ %16, %11 ]
  %17 = load i8, ptr %3, align 1, !range !6, !noundef !7
  %18 = trunc nuw i8 %17 to i1
  br i1 %18, label %19, label %22

19:                                               ; preds = %BufferGetPage.exit
  %.val = load i64, ptr %.0.i.i, align 4
  %20 = call i64 @llvm.fshl.i64(i64 %.val, i64 %.val, i64 32)
  %21 = load i64, ptr %2, align 8
  %.not = icmp ugt i64 %20, %21
  br i1 %.not, label %22, label %23

22:                                               ; preds = %19, %BufferGetPage.exit
  br label %23

23:                                               ; preds = %19, %22
  %.0 = phi i1 [ false, %22 ], [ true, %19 ]
  call void @llvm.lifetime.end.p0(i64 1, ptr nonnull %3) #10
  call void @llvm.lifetime.end.p0(i64 8, ptr nonnull %2) #10
  ret i1 %.0
}